; Function Attrs: mustprogress uwtable
define noundef nonnull align 8 dereferenceable(24) ptr @_ZNK8QuantLib22OvernightIndexedCoupon12indexFixingsEv(ptr noundef nonnull align 8 dereferenceable(313) %this) local_unnamed_addr #8 align 2 personality ptr @__gxx_personality_v0 {
entry:
  %fixings_ = getelementptr inbounds nuw i8, ptr %this, i64 248
  %n_ = getelementptr inbounds nuw i8, ptr %this, i64 272
  %0 = load i64, ptr %n_, align 8, !tbaa !120
  %_M_finish.i.i = getelementptr inbounds nuw i8, ptr %this, i64 256
  %1 = load ptr, ptr %_M_finish.i.i, align 8, !tbaa !123
  %2 = load ptr, ptr %fixings_, align 8, !tbaa !124
  %sub.ptr.lhs.cast.i.i = ptrtoint ptr %1 to i64
  %sub.ptr.rhs.cast.i.i = ptrtoint ptr %2 to i64
  %sub.ptr.sub.i.i = sub i64 %sub.ptr.lhs.cast.i.i, %sub.ptr.rhs.cast.i.i
  %sub.ptr.div.i.i = ashr exact i64 %sub.ptr.sub.i.i, 3
  %cmp.i = icmp ugt i64 %0, %sub.ptr.div.i.i
  br i1 %cmp.i, label %if.then.i, label %if.else.i

if.then.i:                                        ; preds = %entry
  %sub.i = sub nuw i64 %0, %sub.ptr.div.i.i
  tail call void @_ZNSt6vectorIdSaIdEE17_M_default_appendEm(ptr noundef nonnull align 8 dereferenceable(24) %fixings_, i64 noundef %sub.i)
  %.pre = load i64, ptr %n_, align 8, !tbaa !120
  br label %_ZNSt6vectorIdSaIdEE6resizeEm.exit

if.else.i:                                        ; preds = %entry
  %cmp4.i = icmp ult i64 %0, %sub.ptr.div.i.i
  br i1 %cmp4.i, label %if.then5.i, label %_ZNSt6vectorIdSaIdEE6resizeEm.exit

if.then5.i:                                       ; preds = %if.else.i
  %add.ptr.i = getelementptr inbounds nuw double, ptr %2, i64 %0
  %tobool.not.i.i = icmp eq ptr %1, %add.ptr.i
  br i1 %tobool.not.i.i, label %_ZNSt6vectorIdSaIdEE6resizeEm.exit, label %invoke.cont.i.i

invoke.cont.i.i:                                  ; preds = %if.then5.i
  store ptr %add.ptr.i, ptr %_M_finish.i.i, align 8, !tbaa !123
  br label %_ZNSt6vectorIdSaIdEE6resizeEm.exit

_ZNSt6vectorIdSaIdEE6resizeEm.exit:               ; preds = %if.then.i, %if.else.i, %if.then5.i, %invoke.cont.i.i
  %3 = phi i64 [ %.pre, %if.then.i ], [ %0, %if.else.i ], [ %0, %if.then5.i ], [ %0, %invoke.cont.i.i ]
  %cmp6.not = icmp eq i64 %3, 0
  br i1 %cmp6.not, label %for.cond.cleanup, label %for.body.lr.ph

for.body.lr.ph:                                   ; preds = %_ZNSt6vectorIdSaIdEE6resizeEm.exit
  %index_ = getelementptr inbounds nuw i8, ptr %this, i64 88
  %fixingDates_ = getelementptr inbounds nuw i8, ptr %this, i64 224
  br label %for.body

for.cond.cleanup:                                 ; preds = %_ZNK5boost10shared_ptrIN8QuantLib17InterestRateIndexEEptEv.exit, %_ZNSt6vectorIdSaIdEE6resizeEm.exit
  ret ptr %fixings_

for.body:                                         ; preds = %for.body.lr.ph, %_ZNK5boost10shared_ptrIN8QuantLib17InterestRateIndexEEptEv.exit
  %i.07 = phi i64 [ 0, %for.body.lr.ph ], [ %inc, %_ZNK5boost10shared_ptrIN8QuantLib17InterestRateIndexEEptEv.exit ]
  %4 = load ptr, ptr %index_, align 8, !tbaa !53
  %cmp.not.i = icmp eq ptr %4, null
  br i1 %cmp.not.i, label %cond.false.i, label %_ZNK5boost10shared_ptrIN8QuantLib17InterestRateIndexEEptEv.exit, !prof !75

cond.false.i:                                     ; preds = %for.body
  tail call void @_ZN5boost16assertion_failedEPKcS1_S1_l(ptr noundef nonnull @.str.19, ptr noundef nonnull @__PRETTY_FUNCTION__._ZNK5boost10shared_ptrIN8QuantLib17InterestRateIndexEEptEv, ptr noundef nonnull @.str.20, i64 noundef 784)
  %.pre.i = load ptr, ptr %index_, align 8, !tbaa !53
  br label %_ZNK5boost10shared_ptrIN8QuantLib17InterestRateIndexEEptEv.exit

_ZNK5boost10shared_ptrIN8QuantLib17InterestRateIndexEEptEv.exit: ; preds = %for.body, %cond.false.i
  %5 = phi ptr [ %4, %for.body ], [ %.pre.i, %cond.false.i ]
  %6 = load ptr, ptr %fixingDates_, align 8, !tbaa !118
  %add.ptr.i4 = getelementptr inbounds nuw %"class.QuantLib::Date", ptr %6, i64 %i.07
  %vtable = load ptr, ptr %5, align 8, !tbaa !33
  %vfn = getelementptr inbounds i8, ptr %vtable, i64 40
  %7 = load ptr, ptr %vfn, align 8
  %call4 = tail call noundef double %7(ptr noundef nonnull align 8 dereferenceable(240) %5, ptr noundef nonnull align 8 dereferenceable(8) %add.ptr.i4, i1 noundef zeroext false)
  %8 = load ptr, ptr %fixings_, align 8, !tbaa !124
  %add.ptr.i5 = getelementptr inbounds nuw double, ptr %8, i64 %i.07
  store double %call4, ptr %add.ptr.i5, align 8, !tbaa !125
  %inc = add nuw i64 %i.07, 1
  %9 = load i64, ptr %n_, align 8, !tbaa !120
  %cmp = icmp ult i64 %inc, %9
  br i1 %cmp, label %for.body, label %for.cond.cleanup, !llvm.loop !169
}